; ModuleID = 'bench/gromacs/original/pme_force_sender_gpu_impl.cpp.ll'
source_filename = "bench/gromacs/original/pme_force_sender_gpu_impl.cpp.ll"
target datalayout = "e-m:e-p270:32:32-p271:32:32-p272:64:64-i64:64-i128:128-f80:128-n8:16:32:64-S128"
target triple = "x86_64-pc-linux-gnu"

@_ZN3gmx17PmeForceSenderGpuC1EP20GpuEventSynchronizerP10tmpi_comm_RK13DeviceContextNS_8ArrayRefI7PpRanksEE = unnamed_addr alias void (ptr, ptr, ptr, ptr, ptr, ptr), ptr @_ZN3gmx17PmeForceSenderGpuC2EP20GpuEventSynchronizerP10tmpi_comm_RK13DeviceContextNS_8ArrayRefI7PpRanksEE
@_ZN3gmx17PmeForceSenderGpuD1Ev = unnamed_addr alias void (ptr), ptr @_ZN3gmx17PmeForceSenderGpuD2Ev

; Function Attrs: mustprogress nofree norecurse nosync nounwind willreturn memory(argmem: write) uwtable
define void @_ZN3gmx17PmeForceSenderGpuC2EP20GpuEventSynchronizerP10tmpi_comm_RK13DeviceContextNS_8ArrayRefI7PpRanksEE(ptr nocapture noundef nonnull writeonly align 8 dereferenceable(8) %0, ptr nocapture readnone %1, ptr nocapture readnone %2, ptr nocapture nonnull readnone align 1 %3, ptr nocapture readnone %4, ptr nocapture readnone %5) unnamed_addr #0 align 2 personality ptr @__gxx_personality_v0 {
  store ptr null, ptr %0, align 8
  ret void
}

declare i32 @__gxx_personality_v0(...)

; Function Attrs: mustprogress nounwind uwtable
define void @_ZN3gmx17PmeForceSenderGpuD2Ev(ptr nocapture noundef nonnull align 8 dereferenceable(8) %0) unnamed_addr #1 align 2 personality ptr @__gxx_personality_v0 {
  %2 = load ptr, ptr %0, align 8
  %.not.i = icmp eq ptr %2, null
  br i1 %.not.i, label %_ZNSt10unique_ptrIN3gmx17PmeForceSenderGpu4ImplESt14default_deleteIS2_EED2Ev.exit, label %_ZNKSt14default_deleteIN3gmx17PmeForceSenderGpu4ImplEEclEPS2_.exit.i

_ZNKSt14default_deleteIN3gmx17PmeForceSenderGpu4ImplEEclEPS2_.exit.i: ; preds = %1
  tail call void @_ZdlPv(ptr noundef nonnull %2) #4
  br label %_ZNSt10unique_ptrIN3gmx17PmeForceSenderGpu4ImplESt14default_deleteIS2_EED2Ev.exit

_ZNSt10unique_ptrIN3gmx17PmeForceSenderGpu4ImplESt14default_deleteIS2_EED2Ev.exit: ; preds = %1, %_ZNKSt14default_deleteIN3gmx17PmeForceSenderGpu4ImplEEclEPS2_.exit.i
  store ptr null, ptr %0, align 8
  ret void
}

; Function Attrs: nobuiltin nounwind
declare void @_ZdlPv(ptr noundef) local_unnamed_addr #2

; Function Attrs: mustprogress nofree norecurse nosync nounwind willreturn memory(none) uwtable
define void @_ZN3gmx17PmeForceSenderGpu18setForceSendBufferEPv(ptr nocapture noundef nonnull readnone align 8 dereferenceable(8) %0, ptr nocapture noundef readnone %1) local_unnamed_addr #3 align 2 {
  ret void
}

; Function Attrs: mustprogress nofree norecurse nosync nounwind willreturn memory(none) uwtable
define void @_ZN3gmx17PmeForceSenderGpu19sendFToPpPeerToPeerEiib(ptr nocapture noundef nonnull readnone align 8 dereferenceable(8) %0, i32 noundef %1, i32 noundef %2, i1 noundef zeroext %3) local_unnamed_addr #3 align 2 {
  ret void
}

; Function Attrs: mustprogress nofree norecurse nosync nounwind willreturn memory(none) uwtable
define void @_ZN3gmx17PmeForceSenderGpu20sendFToPpGpuAwareMpiEPviiiPP9tmpi_req_(ptr nocapture noundef nonnull readnone align 8 dereferenceable(8) %0, ptr nocapture noundef readnone %1, i32 noundef %2, i32 noundef %3, i32 noundef %4, ptr nocapture noundef readnone %5) local_unnamed_addr #3 align 2 {
  ret void
}

; Function Attrs: mustprogress nofree norecurse nosync nounwind willreturn memory(none) uwtable
define void @_ZN3gmx17PmeForceSenderGpu13waitForEventsEv(ptr nocapture noundef nonnull readnone align 8 dereferenceable(8) %0) local_unnamed_addr #3 align 2 {
  ret void
}


!llvm.module.flags = !{!0, !1, !2, !3, !4}

!0 = !{i32 1, !"wchar_size", i32 4}
!1 = !{i32 7, !"openmp", i32 51}
!2 = !{i32 8, !"PIC Level", i32 2}
!3 = !{i32 7, !"uwtable", i32 2}
!4 = !{i32 7, !"frame-pointer", i32 2}
